target datalayout = "e-m:e-p270:32:32-p271:32:32-p272:64:64-i64:64-i128:128-f80:128-n8:16:32:64-S128"
target triple = "x86_64-pc-linux-gnu"

%"class.llvm::SmallVectorBase" = type { ptr, i32, i32 }
%class.CallBack = type { %"class.clang::ento::StoreManager::BindingsHandler", ptr, ptr, i8, %"class.llvm::SmallVector.894", %"class.llvm::SmallPtrSet.899" }
%"class.clang::ento::StoreManager::BindingsHandler" = type { ptr }
%"class.llvm::SmallVector.894" = type { %"class.llvm::SmallVectorImpl.895", %"struct.llvm::SmallVectorStorage.898" }
%"class.llvm::SmallVectorImpl.895" = type { %"class.llvm::SmallVectorTemplateBase.896" }
%"class.llvm::SmallVectorTemplateBase.896" = type { %"class.llvm::SmallVectorTemplateCommon.897" }
%"class.llvm::SmallVectorTemplateCommon.897" = type { %"class.llvm::SmallVectorBase" }
%"struct.llvm::SmallVectorStorage.898" = type { [160 x i8] }
%"class.llvm::SmallPtrSet.899" = type { %"class.llvm::SmallPtrSetImpl.base.901", [4 x ptr] }
%"class.llvm::SmallPtrSetImpl.base.901" = type { %"class.llvm::SmallPtrSetImplBase.base" }
%"class.llvm::SmallPtrSetImplBase.base" = type <{ ptr, ptr, i32, i32, i32 }>
%"struct.std::pair.902" = type { ptr, ptr }
%"class.llvm::SmallPtrSetImplBase" = type <{ ptr, ptr, i32, i32, i32, [4 x i8] }>

; Function Attrs: mustprogress nounwind uwtable
define linkonce_odr hidden noundef ptr @_ZNK4llvm25SmallVectorTemplateCommonISt4pairIPKN5clang4ento9MemRegionES6_EvE10getFirstElEv(ptr noundef nonnull align 8 dereferenceable(16) %0) #0 comdat align 2 {
  %2 = alloca ptr, align 8
  store ptr %0, ptr %2, align 8
  %3 = load ptr, ptr %2, align 8
  %4 = getelementptr inbounds i8, ptr %3, i64 16
  ret ptr %4
}

; Function Attrs: mustprogress nounwind uwtable
define linkonce_odr hidden noundef zeroext i1 @_ZNK4llvm19SmallPtrSetImplBase7isSmallEv(ptr noundef nonnull align 8 dereferenceable(28) %0) #0 comdat align 2 {
  %2 = alloca ptr, align 8
  store ptr %0, ptr %2, align 8
  %3 = load ptr, ptr %2, align 8
  %4 = getelementptr inbounds nuw %"class.llvm::SmallPtrSetImplBase", ptr %3, i32 0, i32 1
  %5 = load ptr, ptr %4, align 8
  %6 = getelementptr inbounds nuw %"class.llvm::SmallPtrSetImplBase", ptr %3, i32 0, i32 0
  %7 = load ptr, ptr %6, align 8
  %8 = icmp eq ptr %5, %7
  ret i1 %8
}

; Function Attrs: mustprogress nounwind uwtable
define linkonce_odr hidden noundef zeroext i1 @_ZNK4llvm25SmallVectorTemplateCommonISt4pairIPKN5clang4ento9MemRegionES6_EvE7isSmallEv(ptr noundef nonnull align 8 dereferenceable(16) %0) #0 comdat align 2 {
  %2 = alloca ptr, align 8
  store ptr %0, ptr %2, align 8
  %3 = load ptr, ptr %2, align 8
  %4 = getelementptr inbounds nuw %"class.llvm::SmallVectorBase", ptr %3, i32 0, i32 0
  %5 = load ptr, ptr %4, align 8
  %6 = call noundef ptr @_ZNK4llvm25SmallVectorTemplateCommonISt4pairIPKN5clang4ento9MemRegionES6_EvE10getFirstElEv(ptr noundef nonnull align 8 dereferenceable(16) %3)
  %7 = icmp eq ptr %5, %6
  ret i1 %7
}

; Function Attrs: mustprogress nounwind uwtable
define linkonce_odr hidden void @_ZN4llvm19SmallPtrSetImplBaseD2Ev(ptr noundef nonnull align 8 dereferenceable(28) %0) unnamed_addr #0 comdat align 2 {
  %2 = alloca ptr, align 8
  store ptr %0, ptr %2, align 8
  %3 = load ptr, ptr %2, align 8
  %4 = call noundef zeroext i1 @_ZNK4llvm19SmallPtrSetImplBase7isSmallEv(ptr noundef nonnull align 8 dereferenceable(28) %3)
  br i1 %4, label %8, label %5

5:                                                ; preds = %1
  %6 = getelementptr inbounds nuw %"class.llvm::SmallPtrSetImplBase", ptr %3, i32 0, i32 1
  %7 = load ptr, ptr %6, align 8
  call void @free(ptr noundef %7) #11
  br label %8

8:                                                ; preds = %5, %1
  ret void
}

; Function Attrs: mustprogress nounwind uwtable
define linkonce_odr hidden void @_ZN4llvm15SmallVectorImplISt4pairIPKN5clang4ento9MemRegionES6_EED2Ev(ptr noundef nonnull align 8 dereferenceable(16) %0) unnamed_addr #0 comdat align 2 {
  %2 = alloca ptr, align 8
  store ptr %0, ptr %2, align 8
  %3 = load ptr, ptr %2, align 8
  %4 = call noundef zeroext i1 @_ZNK4llvm25SmallVectorTemplateCommonISt4pairIPKN5clang4ento9MemRegionES6_EvE7isSmallEv(ptr noundef nonnull align 8 dereferenceable(16) %3)
  br i1 %4, label %7, label %5

5:                                                ; preds = %1
  %6 = call noundef ptr @_ZN4llvm25SmallVectorTemplateCommonISt4pairIPKN5clang4ento9MemRegionES6_EvE5beginEv(ptr noundef nonnull align 8 dereferenceable(16) %3)
  call void @free(ptr noundef %6) #11
  br label %7

7:                                                ; preds = %5, %1
  ret void
}

; Function Attrs: mustprogress nounwind uwtable
define linkonce_odr hidden void @_ZN4llvm23SmallVectorTemplateBaseISt4pairIPKN5clang4ento9MemRegionES6_ELb1EE13destroy_rangeEPS7_S9_(ptr noundef %0, ptr noundef %1) #0 comdat align 2 {
  %3 = alloca ptr, align 8
  %4 = alloca ptr, align 8
  store ptr %0, ptr %3, align 8
  store ptr %1, ptr %4, align 8
  ret void
}

; Function Attrs: mustprogress nounwind uwtable
define linkonce_odr hidden noundef ptr @_ZN4llvm25SmallVectorTemplateCommonISt4pairIPKN5clang4ento9MemRegionES6_EvE3endEv(ptr noundef nonnull align 8 dereferenceable(16) %0) #0 comdat align 2 {
  %2 = alloca ptr, align 8
  store ptr %0, ptr %2, align 8
  %3 = load ptr, ptr %2, align 8
  %4 = call noundef ptr @_ZN4llvm25SmallVectorTemplateCommonISt4pairIPKN5clang4ento9MemRegionES6_EvE5beginEv(ptr noundef nonnull align 8 dereferenceable(16) %3)
  %5 = call noundef i64 @_ZNK4llvm15SmallVectorBaseIjE4sizeEv(ptr noundef nonnull align 8 dereferenceable(16) %3)
  %6 = getelementptr inbounds %"struct.std::pair.902", ptr %4, i64 %5
  ret ptr %6
}

; Function Attrs: mustprogress nounwind uwtable
define linkonce_odr hidden noundef ptr @_ZN4llvm25SmallVectorTemplateCommonISt4pairIPKN5clang4ento9MemRegionES6_EvE5beginEv(ptr noundef nonnull align 8 dereferenceable(16) %0) #0 comdat align 2 {
  %2 = alloca ptr, align 8
  store ptr %0, ptr %2, align 8
  %3 = load ptr, ptr %2, align 8
  %4 = getelementptr inbounds nuw %"class.llvm::SmallVectorBase", ptr %3, i32 0, i32 0
  %5 = load ptr, ptr %4, align 8
  ret ptr %5
}

; Function Attrs: mustprogress nounwind uwtable
define linkonce_odr hidden void @_ZN4llvm15SmallPtrSetImplIPKN5clang4ento9MemRegionEED2Ev(ptr noundef nonnull align 8 dereferenceable(28) %0) unnamed_addr #0 comdat align 2 {
  %2 = alloca ptr, align 8
  store ptr %0, ptr %2, align 8
  %3 = load ptr, ptr %2, align 8
  call void @_ZN4llvm19SmallPtrSetImplBaseD2Ev(ptr noundef nonnull align 8 dereferenceable(28) %3) #11
  ret void
}

; Function Attrs: mustprogress nounwind uwtable
define linkonce_odr hidden void @_ZN4llvm11SmallVectorISt4pairIPKN5clang4ento9MemRegionES6_ELj10EED2Ev(ptr noundef nonnull align 8 dereferenceable(176) %0) unnamed_addr #0 comdat align 2 {
  %2 = alloca ptr, align 8
  store ptr %0, ptr %2, align 8
  %3 = load ptr, ptr %2, align 8
  %4 = call noundef ptr @_ZN4llvm25SmallVectorTemplateCommonISt4pairIPKN5clang4ento9MemRegionES6_EvE5beginEv(ptr noundef nonnull align 8 dereferenceable(16) %3)
  %5 = call noundef ptr @_ZN4llvm25SmallVectorTemplateCommonISt4pairIPKN5clang4ento9MemRegionES6_EvE3endEv(ptr noundef nonnull align 8 dereferenceable(16) %3)
  call void @_ZN4llvm23SmallVectorTemplateBaseISt4pairIPKN5clang4ento9MemRegionES6_ELb1EE13destroy_rangeEPS7_S9_(ptr noundef %4, ptr noundef %5)
  call void @_ZN4llvm15SmallVectorImplISt4pairIPKN5clang4ento9MemRegionES6_EED2Ev(ptr noundef nonnull align 8 dereferenceable(16) %3) #11
  ret void
}

; Function Attrs: mustprogress nounwind uwtable
define linkonce_odr hidden void @_ZN4llvm11SmallPtrSetIPKN5clang4ento9MemRegionELj4EED2Ev(ptr noundef nonnull align 8 dereferenceable(64) %0) unnamed_addr #0 comdat align 2 {
  %2 = alloca ptr, align 8
  store ptr %0, ptr %2, align 8
  %3 = load ptr, ptr %2, align 8
  call void @_ZN4llvm15SmallPtrSetImplIPKN5clang4ento9MemRegionEED2Ev(ptr noundef nonnull align 8 dereferenceable(28) %3) #11
  ret void
}

; Function Attrs: mustprogress nounwind uwtable
define internal void @_ZZNK12_GLOBAL__N_122StackAddrEscapeChecker16checkEndFunctionEPKN5clang10ReturnStmtERNS1_4ento14CheckerContextEEN8CallBackD2Ev(ptr noundef nonnull align 8 dereferenceable(272) %0) unnamed_addr #0 align 2 {
  %2 = alloca ptr, align 8
  store ptr %0, ptr %2, align 8
  %3 = load ptr, ptr %2, align 8
  store ptr getelementptr inbounds inrange(-16, 24) ({ [5 x ptr] }, ptr @_ZTVZNK12_GLOBAL__N_122StackAddrEscapeChecker16checkEndFunctionEPKN5clang10ReturnStmtERNS1_4ento14CheckerContextEE8CallBack, i32 0, i32 0, i32 2), ptr %3, align 8
  %4 = getelementptr inbounds nuw %class.CallBack, ptr %3, i32 0, i32 5
  call void @_ZN4llvm11SmallPtrSetIPKN5clang4ento9MemRegionELj4EED2Ev(ptr noundef nonnull align 8 dereferenceable(64) %4) #11
  %5 = getelementptr inbounds nuw %class.CallBack, ptr %3, i32 0, i32 4
  call void @_ZN4llvm11SmallVectorISt4pairIPKN5clang4ento9MemRegionES6_ELj10EED2Ev(ptr noundef nonnull align 8 dereferenceable(176) %5) #11
  call void @_ZN5clang4ento12StoreManager15BindingsHandlerD2Ev(ptr noundef nonnull align 8 dereferenceable(8) %3) #11
  ret void
}

; Function Attrs: mustprogress nounwind uwtable
define internal void @_ZZNK12_GLOBAL__N_122StackAddrEscapeChecker16checkEndFunctionEPKN5clang10ReturnStmtERNS1_4ento14CheckerContextEEN8CallBackD0Ev(ptr noundef nonnull align 8 dereferenceable(272) %0) unnamed_addr #0 align 2 {
  %2 = alloca ptr, align 8
  store ptr %0, ptr %2, align 8
  %3 = load ptr, ptr %2, align 8
  call void @_ZZNK12_GLOBAL__N_122StackAddrEscapeChecker16checkEndFunctionEPKN5clang10ReturnStmtERNS1_4ento14CheckerContextEEN8CallBackD2Ev(ptr noundef nonnull align 8 dereferenceable(272) %3) #11
  call void @_ZdlPvm(ptr noundef %3, i64 noundef 272) #13
  ret void
}