; Function Attrs: mustprogress nounwind uwtable
define internal void @_ZZNK12_GLOBAL__N_122StackAddrEscapeChecker16checkEndFunctionEPKN5clang10ReturnStmtERNS1_4ento14CheckerContextEEN8CallBackD0Ev(ptr noundef nonnull align 8 dereferenceable(272) %0) unnamed_addr #0 align 2 {
  store ptr getelementptr inbounds inrange(-16, 24) (i8, ptr @_ZTVZNK12_GLOBAL__N_122StackAddrEscapeChecker16checkEndFunctionEPKN5clang10ReturnStmtERNS1_4ento14CheckerContextEE8CallBack, i64 16), ptr %0, align 8
  %2 = getelementptr inbounds nuw i8, ptr %0, i64 208
  %3 = getelementptr inbounds i8, ptr %0, i64 216
  %4 = load ptr, ptr %3, align 8
  %5 = load ptr, ptr %2, align 8
  %6 = icmp eq ptr %4, %5
  br i1 %6, label %_ZN4llvm11SmallPtrSetIPKN5clang4ento9MemRegionELj4EED2Ev.exit.i, label %7

7:                                                ; preds = %1
  tail call void @free(ptr noundef %4) #17
  br label %_ZN4llvm11SmallPtrSetIPKN5clang4ento9MemRegionELj4EED2Ev.exit.i

_ZN4llvm11SmallPtrSetIPKN5clang4ento9MemRegionELj4EED2Ev.exit.i: ; preds = %7, %1
  %8 = getelementptr inbounds nuw i8, ptr %0, i64 32
  %9 = tail call noundef i64 @_ZNK4llvm15SmallVectorBaseIjE4sizeEv(ptr noundef nonnull align 8 dereferenceable(16) %8) #17
  %10 = load ptr, ptr %8, align 8
  %11 = getelementptr inbounds i8, ptr %0, i64 48
  %12 = icmp eq ptr %10, %11
  br i1 %12, label %_ZZNK12_GLOBAL__N_122StackAddrEscapeChecker16checkEndFunctionEPKN5clang10ReturnStmtERNS1_4ento14CheckerContextEEN8CallBackD2Ev.exit, label %13

13:                                               ; preds = %_ZN4llvm11SmallPtrSetIPKN5clang4ento9MemRegionELj4EED2Ev.exit.i
  tail call void @free(ptr noundef %10) #17
  br label %_ZZNK12_GLOBAL__N_122StackAddrEscapeChecker16checkEndFunctionEPKN5clang10ReturnStmtERNS1_4ento14CheckerContextEEN8CallBackD2Ev.exit

_ZZNK12_GLOBAL__N_122StackAddrEscapeChecker16checkEndFunctionEPKN5clang10ReturnStmtERNS1_4ento14CheckerContextEEN8CallBackD2Ev.exit: ; preds = %_ZN4llvm11SmallPtrSetIPKN5clang4ento9MemRegionELj4EED2Ev.exit.i, %13
  tail call void @_ZN5clang4ento12StoreManager15BindingsHandlerD2Ev(ptr noundef nonnull align 8 dereferenceable(8) %0) #17
  tail call void @_ZdlPvm(ptr noundef nonnull %0, i64 noundef 272) #20
  ret void
}